target datalayout = "e-m:e-p270:32:32-p271:32:32-p272:64:64-i64:64-i128:128-f80:128-n8:16:32:64-S128"
target triple = "x86_64-pc-linux-gnu"

%struct.FunctionCallInfoBaseData = type { ptr, ptr, ptr, i32, i8, i16, [0 x %struct.NullableDatum] }
%struct.NullableDatum = type { i64, i8 }
%struct.anon = type { i32, [0 x i8] }
%struct.ArrayType = type { i32, i32, i32, i32 }
%struct.ExpandedArrayHeader = type { %struct.ExpandedObjectHeader, i32, i32, ptr, ptr, i32, i16, i8, i8, ptr, ptr, i32, i32, i64, ptr, ptr, ptr }
%struct.ExpandedObjectHeader = type { i32, ptr, ptr, [10 x i8], [10 x i8] }

; Function Attrs: inlinehint nounwind uwtable
define internal i64 @Int32GetDatum(i32 noundef %0) #2 {
  %2 = alloca i32, align 4
  store i32 %0, ptr %2, align 4
  %3 = load i32, ptr %2, align 4
  %4 = sext i32 %3 to i64
  ret i64 %4
}

; Function Attrs: inlinehint nounwind uwtable
define internal i32 @DatumGetInt32(i64 noundef %0) #2 {
  %2 = alloca i64, align 8
  store i64 %0, ptr %2, align 8
  %3 = load i64, ptr %2, align 8
  %4 = trunc i64 %3 to i32
  ret i32 %4
}

; Function Attrs: nounwind uwtable
define dso_local i64 @array_upper(ptr noundef %0) #0 {
  %2 = alloca i64, align 8
  %3 = alloca ptr, align 8
  %4 = alloca ptr, align 8
  %5 = alloca i32, align 4
  %6 = alloca ptr, align 8
  %7 = alloca ptr, align 8
  %8 = alloca i32, align 4
  %9 = alloca i32, align 4
  store ptr %0, ptr %3, align 8
  call void @llvm.lifetime.start.p0(i64 8, ptr %4) #11
  %10 = load ptr, ptr %3, align 8
  %11 = getelementptr inbounds nuw %struct.FunctionCallInfoBaseData, ptr %10, i32 0, i32 6
  %12 = getelementptr inbounds [0 x %struct.NullableDatum], ptr %11, i64 0, i64 0
  %13 = getelementptr inbounds nuw %struct.NullableDatum, ptr %12, i32 0, i32 0
  %14 = load i64, ptr %13, align 8
  %15 = call ptr @DatumGetAnyArrayP(i64 noundef %14)
  store ptr %15, ptr %4, align 8
  call void @llvm.lifetime.start.p0(i64 4, ptr %5) #11
  %16 = load ptr, ptr %3, align 8
  %17 = getelementptr inbounds nuw %struct.FunctionCallInfoBaseData, ptr %16, i32 0, i32 6
  %18 = getelementptr inbounds [0 x %struct.NullableDatum], ptr %17, i64 0, i64 1
  %19 = getelementptr inbounds nuw %struct.NullableDatum, ptr %18, i32 0, i32 0
  %20 = load i64, ptr %19, align 8
  %21 = call i32 @DatumGetInt32(i64 noundef %20)
  store i32 %21, ptr %5, align 4
  call void @llvm.lifetime.start.p0(i64 8, ptr %6) #11
  call void @llvm.lifetime.start.p0(i64 8, ptr %7) #11
  call void @llvm.lifetime.start.p0(i64 4, ptr %8) #11
  %22 = load ptr, ptr %4, align 8
  %23 = getelementptr inbounds nuw %struct.anon, ptr %22, i32 0, i32 0
  %24 = load i32, ptr %23, align 4
  %25 = icmp eq i32 %24, -1
  br i1 %25, label %26, label %30

26:                                               ; preds = %1
  %27 = load ptr, ptr %4, align 8
  %28 = getelementptr inbounds nuw %struct.ExpandedArrayHeader, ptr %27, i32 0, i32 2
  %29 = load i32, ptr %28, align 4
  br label %34

30:                                               ; preds = %1
  %31 = load ptr, ptr %4, align 8
  %32 = getelementptr inbounds nuw %struct.ArrayType, ptr %31, i32 0, i32 1
  %33 = load i32, ptr %32, align 4
  br label %34

34:                                               ; preds = %30, %26
  %35 = phi i32 [ %29, %26 ], [ %33, %30 ]
  %36 = icmp sle i32 %35, 0
  br i1 %36, label %53, label %37

37:                                               ; preds = %34
  %38 = load ptr, ptr %4, align 8
  %39 = getelementptr inbounds nuw %struct.anon, ptr %38, i32 0, i32 0
  %40 = load i32, ptr %39, align 4
  %41 = icmp eq i32 %40, -1
  br i1 %41, label %42, label %46

42:                                               ; preds = %37
  %43 = load ptr, ptr %4, align 8
  %44 = getelementptr inbounds nuw %struct.ExpandedArrayHeader, ptr %43, i32 0, i32 2
  %45 = load i32, ptr %44, align 4
  br label %50

46:                                               ; preds = %37
  %47 = load ptr, ptr %4, align 8
  %48 = getelementptr inbounds nuw %struct.ArrayType, ptr %47, i32 0, i32 1
  %49 = load i32, ptr %48, align 4
  br label %50

50:                                               ; preds = %46, %42
  %51 = phi i32 [ %45, %42 ], [ %49, %46 ]
  %52 = icmp sgt i32 %51, 6
  br i1 %52, label %53, label %59

53:                                               ; preds = %50, %34
  br label %54

54:                                               ; preds = %53
  %55 = load ptr, ptr %3, align 8
  %56 = getelementptr inbounds nuw %struct.FunctionCallInfoBaseData, ptr %55, i32 0, i32 4
  store i8 1, ptr %56, align 4
  store i64 0, ptr %2, align 8
  store i32 1, ptr %9, align 4
  br label %134

57:                                               ; No predecessors!
  br label %58

58:                                               ; preds = %57
  br label %59

59:                                               ; preds = %58, %50
  %60 = load i32, ptr %5, align 4
  %61 = icmp sle i32 %60, 0
  br i1 %61, label %79, label %62

62:                                               ; preds = %59
  %63 = load i32, ptr %5, align 4
  %64 = load ptr, ptr %4, align 8
  %65 = getelementptr inbounds nuw %struct.anon, ptr %64, i32 0, i32 0
  %66 = load i32, ptr %65, align 4
  %67 = icmp eq i32 %66, -1
  br i1 %67, label %68, label %72

68:                                               ; preds = %62
  %69 = load ptr, ptr %4, align 8
  %70 = getelementptr inbounds nuw %struct.ExpandedArrayHeader, ptr %69, i32 0, i32 2
  %71 = load i32, ptr %70, align 4
  br label %76

72:                                               ; preds = %62
  %73 = load ptr, ptr %4, align 8
  %74 = getelementptr inbounds nuw %struct.ArrayType, ptr %73, i32 0, i32 1
  %75 = load i32, ptr %74, align 4
  br label %76

76:                                               ; preds = %72, %68
  %77 = phi i32 [ %71, %68 ], [ %75, %72 ]
  %78 = icmp sgt i32 %63, %77
  br i1 %78, label %79, label %85

79:                                               ; preds = %76, %59
  br label %80

80:                                               ; preds = %79
  %81 = load ptr, ptr %3, align 8
  %82 = getelementptr inbounds nuw %struct.FunctionCallInfoBaseData, ptr %81, i32 0, i32 4
  store i8 1, ptr %82, align 4
  store i64 0, ptr %2, align 8
  store i32 1, ptr %9, align 4
  br label %134

83:                                               ; No predecessors!
  br label %84

84:                                               ; preds = %83
  br label %85

85:                                               ; preds = %84, %76
  %86 = load ptr, ptr %4, align 8
  %87 = getelementptr inbounds nuw %struct.anon, ptr %86, i32 0, i32 0
  %88 = load i32, ptr %87, align 4
  %89 = icmp eq i32 %88, -1
  br i1 %89, label %90, label %94

90:                                               ; preds = %85
  %91 = load ptr, ptr %4, align 8
  %92 = getelementptr inbounds nuw %struct.ExpandedArrayHeader, ptr %91, i32 0, i32 4
  %93 = load ptr, ptr %92, align 8
  br label %103

94:                                               ; preds = %85
  %95 = load ptr, ptr %4, align 8
  %96 = getelementptr inbounds nuw i8, ptr %95, i64 16
  %97 = load ptr, ptr %4, align 8
  %98 = getelementptr inbounds nuw %struct.ArrayType, ptr %97, i32 0, i32 1
  %99 = load i32, ptr %98, align 4
  %100 = sext i32 %99 to i64
  %101 = mul i64 4, %100
  %102 = getelementptr inbounds nuw i8, ptr %96, i64 %101
  br label %103

103:                                              ; preds = %94, %90
  %104 = phi ptr [ %93, %90 ], [ %102, %94 ]
  store ptr %104, ptr %7, align 8
  %105 = load ptr, ptr %4, align 8
  %106 = getelementptr inbounds nuw %struct.anon, ptr %105, i32 0, i32 0
  %107 = load i32, ptr %106, align 4
  %108 = icmp eq i32 %107, -1
  br i1 %108, label %109, label %113

109:                                              ; preds = %103
  %110 = load ptr, ptr %4, align 8
  %111 = getelementptr inbounds nuw %struct.ExpandedArrayHeader, ptr %110, i32 0, i32 3
  %112 = load ptr, ptr %111, align 8
  br label %116

113:                                              ; preds = %103
  %114 = load ptr, ptr %4, align 8
  %115 = getelementptr inbounds nuw i8, ptr %114, i64 16
  br label %116

116:                                              ; preds = %113, %109
  %117 = phi ptr [ %112, %109 ], [ %115, %113 ]
  store ptr %117, ptr %6, align 8
  %118 = load ptr, ptr %6, align 8
  %119 = load i32, ptr %5, align 4
  %120 = sub i32 %119, 1
  %121 = sext i32 %120 to i64
  %122 = getelementptr inbounds i32, ptr %118, i64 %121
  %123 = load i32, ptr %122, align 4
  %124 = load ptr, ptr %7, align 8
  %125 = load i32, ptr %5, align 4
  %126 = sub i32 %125, 1
  %127 = sext i32 %126 to i64
  %128 = getelementptr inbounds i32, ptr %124, i64 %127
  %129 = load i32, ptr %128, align 4
  %130 = add i32 %123, %129
  %131 = sub i32 %130, 1
  store i32 %131, ptr %8, align 4
  %132 = load i32, ptr %8, align 4
  %133 = call i64 @Int32GetDatum(i32 noundef %132)
  store i64 %133, ptr %2, align 8
  store i32 1, ptr %9, align 4
  br label %134

134:                                              ; preds = %116, %80, %54
  call void @llvm.lifetime.end.p0(i64 4, ptr %8) #11
  call void @llvm.lifetime.end.p0(i64 8, ptr %7) #11
  call void @llvm.lifetime.end.p0(i64 8, ptr %6) #11
  call void @llvm.lifetime.end.p0(i64 4, ptr %5) #11
  call void @llvm.lifetime.end.p0(i64 8, ptr %4) #11
  %135 = load i64, ptr %2, align 8
  ret i64 %135
}