; Function Attrs: nounwind uwtable
define dso_local range(i64 -2147483648, 2147483648) i64 @array_upper(ptr noundef captures(none) %0) local_unnamed_addr #0 {
  %2 = getelementptr inbounds nuw i8, ptr %0, i64 32
  %3 = load i64, ptr %2, align 8
  %4 = tail call ptr @DatumGetAnyArrayP(i64 noundef %3) #18
  %5 = getelementptr inbounds nuw i8, ptr %0, i64 48
  %6 = load i64, ptr %5, align 8
  %7 = load i32, ptr %4, align 4
  %8 = icmp eq i32 %7, -1
  %9 = getelementptr inbounds nuw i8, ptr %4, i64 52
  %10 = getelementptr inbounds nuw i8, ptr %4, i64 4
  %.in = select i1 %8, ptr %9, ptr %10
  %11 = load i32, ptr %.in, align 4
  %12 = add i32 %11, -7
  %or.cond = icmp ult i32 %12, -6
  br i1 %or.cond, label %13, label %15

13:                                               ; preds = %1
  %14 = getelementptr inbounds nuw i8, ptr %0, i64 28
  store i8 1, ptr %14, align 4
  br label %45

15:                                               ; preds = %1
  %16 = trunc i64 %6 to i32
  %17 = icmp slt i32 %16, 1
  %18 = icmp samesign ult i32 %11, %16
  %or.cond30 = select i1 %17, i1 true, i1 %18
  br i1 %or.cond30, label %19, label %21

19:                                               ; preds = %15
  %20 = getelementptr inbounds nuw i8, ptr %0, i64 28
  store i8 1, ptr %20, align 4
  br label %45

21:                                               ; preds = %15
  br i1 %8, label %22, label %27

22:                                               ; preds = %21
  %23 = getelementptr inbounds nuw i8, ptr %4, i64 64
  %24 = load ptr, ptr %23, align 8
  %25 = getelementptr inbounds nuw i8, ptr %4, i64 56
  %26 = load ptr, ptr %25, align 8
  br label %33

27:                                               ; preds = %21
  %28 = getelementptr inbounds nuw i8, ptr %4, i64 16
  %29 = load i32, ptr %10, align 4
  %30 = sext i32 %29 to i64
  %31 = shl nsw i64 %30, 2
  %32 = getelementptr inbounds nuw i8, ptr %28, i64 %31
  br label %33

33:                                               ; preds = %27, %22
  %34 = phi ptr [ %24, %22 ], [ %32, %27 ]
  %35 = phi ptr [ %26, %22 ], [ %28, %27 ]
  %36 = add i64 %6, 4294967295
  %37 = and i64 %36, 4294967295
  %38 = getelementptr inbounds nuw i32, ptr %35, i64 %37
  %39 = load i32, ptr %38, align 4
  %40 = getelementptr inbounds nuw i32, ptr %34, i64 %37
  %41 = load i32, ptr %40, align 4
  %42 = add i32 %39, -1
  %43 = add i32 %42, %41
  %44 = sext i32 %43 to i64
  br label %45

45:                                               ; preds = %33, %19, %13
  %.0 = phi i64 [ 0, %13 ], [ 0, %19 ], [ %44, %33 ]
  ret i64 %.0
}